target datalayout = "e-m:e-p270:32:32-p271:32:32-p272:64:64-i64:64-i128:128-f80:128-n8:16:32:64-S128"
target triple = "x86_64-pc-linux-gnu"

%"class.llvm::StringRef" = type { ptr, i64 }
%"struct.llvm::DWARFSection" = type { %"class.llvm::StringRef", i64 }
%"struct.std::_Rb_tree_header" = type { %"struct.std::_Rb_tree_node_base", i64 }
%"struct.std::_Rb_tree_node_base" = type { i32, ptr, ptr, ptr }
%"class.llvm::SmallVectorBase" = type { ptr, i32, i32 }
%"class.(anonymous namespace)::DWARFObjInMemory" = type { %"class.llvm::DWARFObject", i8, i8, %"class.llvm::StringRef", ptr, %"class.std::vector.796", %"class.llvm::MapVector", %"class.llvm::MapVector", %"class.llvm::MapVector", %"class.llvm::MapVector", %"struct.(anonymous namespace)::DWARFSectionMap", %"struct.(anonymous namespace)::DWARFSectionMap", %"struct.(anonymous namespace)::DWARFSectionMap", %"struct.(anonymous namespace)::DWARFSectionMap", %"struct.(anonymous namespace)::DWARFSectionMap", %"struct.(anonymous namespace)::DWARFSectionMap", %"struct.(anonymous namespace)::DWARFSectionMap", %"struct.(anonymous namespace)::DWARFSectionMap", %"struct.(anonymous namespace)::DWARFSectionMap", %"struct.(anonymous namespace)::DWARFSectionMap", %"struct.(anonymous namespace)::DWARFSectionMap", %"struct.(anonymous namespace)::DWARFSectionMap", %"struct.(anonymous namespace)::DWARFSectionMap", %"struct.(anonymous namespace)::DWARFSectionMap", %"struct.(anonymous namespace)::DWARFSectionMap", %"struct.(anonymous namespace)::DWARFSectionMap", %"struct.(anonymous namespace)::DWARFSectionMap", %"struct.(anonymous namespace)::DWARFSectionMap", %"struct.(anonymous namespace)::DWARFSectionMap", %"struct.(anonymous namespace)::DWARFSectionMap", %"struct.(anonymous namespace)::DWARFSectionMap", %"struct.(anonymous namespace)::DWARFSectionMap", %"struct.(anonymous namespace)::DWARFSectionMap", %"struct.(anonymous namespace)::DWARFSectionMap", %"struct.(anonymous namespace)::DWARFSectionMap", %"class.llvm::StringRef", %"class.llvm::StringRef", %"class.llvm::StringRef", %"class.llvm::StringRef", %"class.llvm::StringRef", %"class.llvm::StringRef", %"class.llvm::StringRef", %"class.llvm::StringRef", %"class.llvm::StringRef", %"class.llvm::StringRef", %"class.llvm::StringRef", %"class.llvm::StringRef", %"class.std::deque" }
%"class.llvm::DWARFObject" = type { ptr, %"struct.llvm::DWARFSection" }
%"class.std::vector.796" = type { %"struct.std::_Vector_base.797" }
%"struct.std::_Vector_base.797" = type { %"struct.std::_Vector_base<llvm::SectionName, std::allocator<llvm::SectionName>>::_Vector_impl" }
%"struct.std::_Vector_base<llvm::SectionName, std::allocator<llvm::SectionName>>::_Vector_impl" = type { %"struct.std::_Vector_base<llvm::SectionName, std::allocator<llvm::SectionName>>::_Vector_impl_data" }
%"struct.std::_Vector_base<llvm::SectionName, std::allocator<llvm::SectionName>>::_Vector_impl_data" = type { ptr, ptr, ptr }
%"class.llvm::MapVector" = type { %"class.std::map.801", %"class.llvm::SmallVector.807" }
%"class.std::map.801" = type { %"class.std::_Rb_tree.802" }
%"class.std::_Rb_tree.802" = type { %"struct.std::_Rb_tree<llvm::object::SectionRef, std::pair<const llvm::object::SectionRef, unsigned int>, std::_Select1st<std::pair<const llvm::object::SectionRef, unsigned int>>, std::less<llvm::object::SectionRef>>::_Rb_tree_impl" }
%"struct.std::_Rb_tree<llvm::object::SectionRef, std::pair<const llvm::object::SectionRef, unsigned int>, std::_Select1st<std::pair<const llvm::object::SectionRef, unsigned int>>, std::less<llvm::object::SectionRef>>::_Rb_tree_impl" = type { [8 x i8], %"struct.std::_Rb_tree_header" }
%"class.llvm::SmallVector.807" = type { %"class.llvm::SmallVectorImpl.808" }
%"class.llvm::SmallVectorImpl.808" = type { %"class.llvm::SmallVectorTemplateBase.809" }
%"class.llvm::SmallVectorTemplateBase.809" = type { %"class.llvm::SmallVectorTemplateCommon.810" }
%"class.llvm::SmallVectorTemplateCommon.810" = type { %"class.llvm::SmallVectorBase" }
%"struct.(anonymous namespace)::DWARFSectionMap" = type { %"struct.llvm::DWARFSection", %"class.llvm::DenseMap.812" }
%"class.llvm::DenseMap.812" = type <{ ptr, i32, i32, i32, [4 x i8] }>
%"class.std::deque" = type { %"class.std::_Deque_base" }
%"class.std::_Deque_base" = type { %"struct.std::_Deque_base<llvm::SmallString<0>, std::allocator<llvm::SmallString<0>>>::_Deque_impl" }
%"struct.std::_Deque_base<llvm::SmallString<0>, std::allocator<llvm::SmallString<0>>>::_Deque_impl" = type { %"struct.std::_Deque_base<llvm::SmallString<0>, std::allocator<llvm::SmallString<0>>>::_Deque_impl_data" }
%"struct.std::_Deque_base<llvm::SmallString<0>, std::allocator<llvm::SmallString<0>>>::_Deque_impl_data" = type { ptr, i64, %"struct.std::_Deque_iterator", %"struct.std::_Deque_iterator" }
%"struct.std::_Deque_iterator" = type { ptr, ptr, ptr, ptr }

; Function Attrs: mustprogress nounwind uwtable
define internal { ptr, i64 } @_ZNK12_GLOBAL__N_116DWARFObjInMemory11getFileNameEv(ptr noundef nonnull align 8 dereferenceable(1816) %0) unnamed_addr #0 align 2 {
  %2 = alloca %"class.llvm::StringRef", align 8
  %3 = alloca ptr, align 8
  store ptr %0, ptr %3, align 8
  %4 = load ptr, ptr %3, align 8
  %5 = getelementptr inbounds nuw %"class.(anonymous namespace)::DWARFObjInMemory", ptr %4, i32 0, i32 3
  call void @llvm.memcpy.p0.p0.i64(ptr align 8 %2, ptr align 8 %5, i64 16, i1 false)
  %6 = load { ptr, i64 }, ptr %2, align 8
  ret { ptr, i64 } %6
}